target datalayout = "e-m:e-p270:32:32-p271:32:32-p272:64:64-i64:64-i128:128-f80:128-n8:16:32:64-S128"
target triple = "x86_64-pc-linux-gnu"

%struct.buf_mem_st = type { i64, ptr, i64, i64 }

@.str.298 = private unnamed_addr constant [2 x i8] c"0\00", align 1
@.str.301 = private unnamed_addr constant [31 x i8] c"mem_ser = BIO_new(BIO_s_mem())\00", align 1
@.str.303 = private unnamed_addr constant [39 x i8] c"BIO_get_mem_ptr(mem_ser, &mem_buf) > 0\00", align 1
@.str.304 = private unnamed_addr constant [25 x i8] c"*encoded = mem_buf->data\00", align 1
@.str.305 = private unnamed_addr constant [31 x i8] c"*encoded_len = mem_buf->length\00", align 1
@.str.339 = private unnamed_addr constant [34 x i8] c"i2b_PrivateKey_bio(mem_ser, pkey)\00", align 1
@.str.340 = private unnamed_addr constant [33 x i8] c"i2b_PublicKey_bio(mem_ser, pkey)\00", align 1

; Function Attrs: nounwind uwtable
define internal i32 @encode_EVP_PKEY_MSBLOB(ptr noundef %0, i32 noundef %1, ptr noundef %2, ptr noundef %3, ptr noundef %4, i32 noundef %5, ptr noundef %6, ptr noundef %7, ptr noundef %8, ptr noundef %9) #0 {
  %11 = alloca ptr, align 8
  %12 = alloca i32, align 4
  %13 = alloca ptr, align 8
  %14 = alloca ptr, align 8
  %15 = alloca ptr, align 8
  %16 = alloca i32, align 4
  %17 = alloca ptr, align 8
  %18 = alloca ptr, align 8
  %19 = alloca ptr, align 8
  %20 = alloca ptr, align 8
  %21 = alloca ptr, align 8
  %22 = alloca ptr, align 8
  %23 = alloca ptr, align 8
  %24 = alloca i32, align 4
  store ptr %0, ptr %11, align 8, !tbaa !4
  store i32 %1, ptr %12, align 4, !tbaa !9
  store ptr %2, ptr %13, align 8, !tbaa !31
  store ptr %3, ptr %14, align 8, !tbaa !32
  store ptr %4, ptr %15, align 8, !tbaa !31
  store i32 %5, ptr %16, align 4, !tbaa !9
  store ptr %6, ptr %17, align 8, !tbaa !4
  store ptr %7, ptr %18, align 8, !tbaa !4
  store ptr %8, ptr %19, align 8, !tbaa !4
  store ptr %9, ptr %20, align 8, !tbaa !4
  call void @llvm.lifetime.start.p0(i64 8, ptr %21) #7
  %25 = load ptr, ptr %15, align 8, !tbaa !31
  store ptr %25, ptr %21, align 8, !tbaa !23
  call void @llvm.lifetime.start.p0(i64 8, ptr %22) #7
  store ptr null, ptr %22, align 8, !tbaa !36
  call void @llvm.lifetime.start.p0(i64 8, ptr %23) #7
  store ptr null, ptr %23, align 8, !tbaa !38
  call void @llvm.lifetime.start.p0(i64 4, ptr %24) #7
  store i32 0, ptr %24, align 4, !tbaa !9
  %26 = load ptr, ptr %11, align 8, !tbaa !4
  %27 = load i32, ptr %12, align 4, !tbaa !9
  %28 = call ptr @BIO_s_mem()
  %29 = call ptr @BIO_new(ptr noundef %28)
  store ptr %29, ptr %22, align 8, !tbaa !36
  %30 = call i32 @test_ptr(ptr noundef %26, i32 noundef %27, ptr noundef @.str.301, ptr noundef %29)
  %31 = icmp ne i32 %30, 0
  br i1 %31, label %33, label %32

32:                                               ; preds = %10
  br label %92

33:                                               ; preds = %10
  %34 = load i32, ptr %16, align 4, !tbaa !9
  %35 = and i32 %34, 1
  %36 = icmp ne i32 %35, 0
  br i1 %36, label %37, label %47

37:                                               ; preds = %33
  %38 = load ptr, ptr %11, align 8, !tbaa !4
  %39 = load i32, ptr %12, align 4, !tbaa !9
  %40 = load ptr, ptr %22, align 8, !tbaa !36
  %41 = load ptr, ptr %21, align 8, !tbaa !23
  %42 = call i32 @i2b_PrivateKey_bio(ptr noundef %40, ptr noundef %41)
  %43 = call i32 @test_int_ge(ptr noundef %38, i32 noundef %39, ptr noundef @.str.339, ptr noundef @.str.298, i32 noundef %42, i32 noundef 0)
  %44 = icmp ne i32 %43, 0
  br i1 %44, label %46, label %45

45:                                               ; preds = %37
  br label %92

46:                                               ; preds = %37
  br label %57

47:                                               ; preds = %33
  %48 = load ptr, ptr %11, align 8, !tbaa !4
  %49 = load i32, ptr %12, align 4, !tbaa !9
  %50 = load ptr, ptr %22, align 8, !tbaa !36
  %51 = load ptr, ptr %21, align 8, !tbaa !23
  %52 = call i32 @i2b_PublicKey_bio(ptr noundef %50, ptr noundef %51)
  %53 = call i32 @test_int_ge(ptr noundef %48, i32 noundef %49, ptr noundef @.str.340, ptr noundef @.str.298, i32 noundef %52, i32 noundef 0)
  %54 = icmp ne i32 %53, 0
  br i1 %54, label %56, label %55

55:                                               ; preds = %47
  br label %92

56:                                               ; preds = %47
  br label %57

57:                                               ; preds = %56, %46
  %58 = load ptr, ptr %11, align 8, !tbaa !4
  %59 = load i32, ptr %12, align 4, !tbaa !9
  %60 = load ptr, ptr %22, align 8, !tbaa !36
  %61 = call i64 @BIO_ctrl(ptr noundef %60, i32 noundef 115, i64 noundef 0, ptr noundef %23)
  %62 = icmp sgt i64 %61, 0
  %63 = zext i1 %62 to i32
  %64 = icmp ne i32 %63, 0
  %65 = zext i1 %64 to i32
  %66 = call i32 @test_true(ptr noundef %58, i32 noundef %59, ptr noundef @.str.303, i32 noundef %65)
  %67 = icmp ne i32 %66, 0
  br i1 %67, label %68, label %86

68:                                               ; preds = %57
  %69 = load ptr, ptr %11, align 8, !tbaa !4
  %70 = load i32, ptr %12, align 4, !tbaa !9
  %71 = load ptr, ptr %23, align 8, !tbaa !38
  %72 = getelementptr inbounds nuw %struct.buf_mem_st, ptr %71, i32 0, i32 1
  %73 = load ptr, ptr %72, align 8, !tbaa !40
  %74 = load ptr, ptr %13, align 8, !tbaa !31
  store ptr %73, ptr %74, align 8, !tbaa !31
  %75 = call i32 @test_ptr(ptr noundef %69, i32 noundef %70, ptr noundef @.str.304, ptr noundef %73)
  %76 = icmp ne i32 %75, 0
  br i1 %76, label %77, label %86

77:                                               ; preds = %68
  %78 = load ptr, ptr %11, align 8, !tbaa !4
  %79 = load i32, ptr %12, align 4, !tbaa !9
  %80 = load ptr, ptr %23, align 8, !tbaa !38
  %81 = getelementptr inbounds nuw %struct.buf_mem_st, ptr %80, i32 0, i32 0
  %82 = load i64, ptr %81, align 8, !tbaa !42
  %83 = load ptr, ptr %14, align 8, !tbaa !32
  store i64 %82, ptr %83, align 8, !tbaa !27
  %84 = call i32 @test_long_gt(ptr noundef %78, i32 noundef %79, ptr noundef @.str.305, ptr noundef @.str.298, i64 noundef %82, i64 noundef 0)
  %85 = icmp ne i32 %84, 0
  br i1 %85, label %87, label %86

86:                                               ; preds = %77, %68, %57
  br label %92

87:                                               ; preds = %77
  %88 = load ptr, ptr %23, align 8, !tbaa !38
  %89 = getelementptr inbounds nuw %struct.buf_mem_st, ptr %88, i32 0, i32 1
  store ptr null, ptr %89, align 8, !tbaa !40
  %90 = load ptr, ptr %23, align 8, !tbaa !38
  %91 = getelementptr inbounds nuw %struct.buf_mem_st, ptr %90, i32 0, i32 0
  store i64 0, ptr %91, align 8, !tbaa !42
  store i32 1, ptr %24, align 4, !tbaa !9
  br label %92

92:                                               ; preds = %87, %86, %55, %45, %32
  %93 = load ptr, ptr %22, align 8, !tbaa !36
  %94 = call i32 @BIO_free(ptr noundef %93)
  %95 = load i32, ptr %24, align 4, !tbaa !9
  call void @llvm.lifetime.end.p0(i64 4, ptr %24) #7
  call void @llvm.lifetime.end.p0(i64 8, ptr %23) #7
  call void @llvm.lifetime.end.p0(i64 8, ptr %22) #7
  call void @llvm.lifetime.end.p0(i64 8, ptr %21) #7
  ret i32 %95
}