; Function Attrs: nounwind uwtable
define internal range(i32 0, 2) i32 @encode_EVP_PKEY_MSBLOB(ptr noundef %0, i32 noundef %1, ptr noundef writeonly captures(none) %2, ptr noundef writeonly captures(none) %3, ptr noundef %4, i32 noundef %5, ptr readnone captures(none) %6, ptr readnone captures(none) %7, ptr readnone captures(none) %8, ptr readnone captures(none) %9) #1 {
  %11 = alloca ptr, align 8
  call void @llvm.lifetime.start.p0(i64 8, ptr nonnull %11) #8
  store ptr null, ptr %11, align 8, !tbaa !29
  %12 = tail call ptr @BIO_s_mem() #8
  %13 = tail call ptr @BIO_new(ptr noundef %12) #8
  %14 = tail call i32 @test_ptr(ptr noundef %0, i32 noundef %1, ptr noundef nonnull @.str.301, ptr noundef %13) #8
  %.not = icmp eq i32 %14, 0
  br i1 %.not, label %39, label %15

15:                                               ; preds = %10
  %16 = and i32 %5, 1
  %.not22 = icmp eq i32 %16, 0
  br i1 %.not22, label %20, label %17

17:                                               ; preds = %15
  %18 = tail call i32 @i2b_PrivateKey_bio(ptr noundef %13, ptr noundef %4) #8
  %19 = tail call i32 @test_int_ge(ptr noundef %0, i32 noundef %1, ptr noundef nonnull @.str.339, ptr noundef nonnull @.str.298, i32 noundef %18, i32 noundef 0) #8
  %.not24 = icmp eq i32 %19, 0
  br i1 %.not24, label %39, label %23

20:                                               ; preds = %15
  %21 = tail call i32 @i2b_PublicKey_bio(ptr noundef %13, ptr noundef %4) #8
  %22 = tail call i32 @test_int_ge(ptr noundef %0, i32 noundef %1, ptr noundef nonnull @.str.340, ptr noundef nonnull @.str.298, i32 noundef %21, i32 noundef 0) #8
  %.not23 = icmp eq i32 %22, 0
  br i1 %.not23, label %39, label %23

23:                                               ; preds = %20, %17
  %24 = call i64 @BIO_ctrl(ptr noundef %13, i32 noundef 115, i64 noundef 0, ptr noundef nonnull %11) #8
  %25 = icmp sgt i64 %24, 0
  %26 = zext i1 %25 to i32
  %27 = call i32 @test_true(ptr noundef %0, i32 noundef %1, ptr noundef nonnull @.str.303, i32 noundef %26) #8
  %.not25 = icmp eq i32 %27, 0
  br i1 %.not25, label %39, label %28

28:                                               ; preds = %23
  %29 = load ptr, ptr %11, align 8, !tbaa !29
  %30 = getelementptr inbounds nuw i8, ptr %29, i64 8
  %31 = load ptr, ptr %30, align 8, !tbaa !31
  store ptr %31, ptr %2, align 8, !tbaa !23
  %32 = call i32 @test_ptr(ptr noundef %0, i32 noundef %1, ptr noundef nonnull @.str.304, ptr noundef %31) #8
  %.not26 = icmp eq i32 %32, 0
  br i1 %.not26, label %39, label %33

33:                                               ; preds = %28
  %34 = load ptr, ptr %11, align 8, !tbaa !29
  %35 = load i64, ptr %34, align 8, !tbaa !34
  store i64 %35, ptr %3, align 8, !tbaa !24
  %36 = call i32 @test_long_gt(ptr noundef %0, i32 noundef %1, ptr noundef nonnull @.str.305, ptr noundef nonnull @.str.298, i64 noundef %35, i64 noundef 0) #8
  %.not27 = icmp eq i32 %36, 0
  br i1 %.not27, label %39, label %37

37:                                               ; preds = %33
  %38 = load ptr, ptr %11, align 8, !tbaa !29
  call void @llvm.memset.p0.i64(ptr noundef nonnull align 8 dereferenceable(16) %38, i8 0, i64 16, i1 false)
  br label %39

39:                                               ; preds = %23, %28, %33, %20, %17, %10, %37
  %.0 = phi i32 [ 1, %37 ], [ 0, %33 ], [ 0, %28 ], [ 0, %23 ], [ 0, %17 ], [ 0, %20 ], [ 0, %10 ]
  %40 = call i32 @BIO_free(ptr noundef %13) #8
  call void @llvm.lifetime.end.p0(i64 8, ptr nonnull %11) #8
  ret i32 %.0
}